; Function Attrs: mustprogress nounwind uwtable
define void @_ZN7openvdb5v11_02io6StreamD2Ev(ptr noundef nonnull align 8 dereferenceable(80) %this) unnamed_addr #8 align 2 personality ptr @__gxx_personality_v0 {
entry:
  store ptr getelementptr inbounds ({ [6 x ptr] }, ptr @_ZTVN7openvdb5v11_02io6StreamE, i64 0, i32 0, i64 2), ptr %this, align 8
  %mImpl = getelementptr inbounds i8, ptr %this, i64 72
  %0 = load ptr, ptr %mImpl, align 8
  %cmp.not.i = icmp eq ptr %0, null
  br i1 %cmp.not.i, label %_ZNSt10unique_ptrIN7openvdb5v11_02io6Stream4ImplESt14default_deleteIS4_EED2Ev.exit, label %_ZNKSt14default_deleteIN7openvdb5v11_02io6Stream4ImplEEclEPS4_.exit.i

_ZNKSt14default_deleteIN7openvdb5v11_02io6Stream4ImplEEclEPS4_.exit.i: ; preds = %entry
  tail call void @_ZN7openvdb5v11_02io6Stream4ImplD2Ev(ptr noundef nonnull align 8 dereferenceable(48) %0) #22
  tail call void @_ZdlPv(ptr noundef nonnull %0) #21
  br label %_ZNSt10unique_ptrIN7openvdb5v11_02io6Stream4ImplESt14default_deleteIS4_EED2Ev.exit

_ZNSt10unique_ptrIN7openvdb5v11_02io6Stream4ImplESt14default_deleteIS4_EED2Ev.exit: ; preds = %entry, %_ZNKSt14default_deleteIN7openvdb5v11_02io6Stream4ImplEEclEPS4_.exit.i
  store ptr null, ptr %mImpl, align 8
  tail call void @_ZN7openvdb5v11_02io7ArchiveD2Ev(ptr noundef nonnull align 8 dereferenceable(65) %this) #22
  ret void
}